target datalayout = "e-m:e-p270:32:32-p271:32:32-p272:64:64-i64:64-i128:128-f80:128-n8:16:32:64-S128"
target triple = "x86_64-pc-linux-gnu"

%struct.opj_cparameters = type { i32, i32, i32, i32, i32, i32, i32, i32, ptr, ptr, i32, i32, [32 x %struct.opj_poc], i32, i32, [100 x float], [100 x float], i32, i32, i32, i32, i32, i32, i32, i32, [33 x i32], [33 x i32], [4096 x i8], [4096 x i8], i32, [4096 x i8], i32, i32, i32, i32, i32, i32, i32, i32, [16 x i32], [16 x i32], [16 x i32], [16 x i32], [16 x i32], i32, i32, i32, i32, [16 x i32], [16 x i32], i32, i32, i32, i8, i8, i8, i32, ptr, i32, i16 }
%struct.opj_poc = type { i32, i32, i32, i32, i32, i32, i32, i32, i32, i32, [5 x i8], i32, i32, i32, i32, i32, i32, i32, i32, i32, i32, i32, i32, i32, i32, i32, i32, i32, i32, i32, i32, i32, i32, i32, i32, i32 }
%struct.opj_image = type { i32, i32, i32, i32, i32, i32, ptr, ptr, i32 }

; Function Attrs: nounwind uwtable
define internal i32 @opj_j2k_get_imf_max_NL(ptr noundef %0, ptr noundef %1) #0 {
  %3 = alloca i32, align 4
  %4 = alloca ptr, align 8
  %5 = alloca ptr, align 8
  %6 = alloca i16, align 2
  %7 = alloca i16, align 2
  %8 = alloca i32, align 4
  %9 = alloca i32, align 4
  store ptr %0, ptr %4, align 8, !tbaa !45
  store ptr %1, ptr %5, align 8, !tbaa !47
  call void @llvm.lifetime.start.p0(i64 2, ptr %6) #10
  %10 = load ptr, ptr %4, align 8, !tbaa !45
  %11 = getelementptr inbounds nuw %struct.opj_cparameters, ptr %10, i32 0, i32 59
  %12 = load i16, ptr %11, align 4, !tbaa !65
  store i16 %12, ptr %6, align 2, !tbaa !169
  call void @llvm.lifetime.start.p0(i64 2, ptr %7) #10
  %13 = load i16, ptr %6, align 2, !tbaa !169
  %14 = zext i16 %13 to i32
  %15 = and i32 %14, 65280
  %16 = trunc i32 %15 to i16
  store i16 %16, ptr %7, align 2, !tbaa !169
  call void @llvm.lifetime.start.p0(i64 4, ptr %8) #10
  %17 = load ptr, ptr %4, align 8, !tbaa !45
  %18 = getelementptr inbounds nuw %struct.opj_cparameters, ptr %17, i32 0, i32 0
  %19 = load i32, ptr %18, align 8, !tbaa !97
  %20 = icmp ne i32 %19, 0
  br i1 %20, label %21, label %25

21:                                               ; preds = %2
  %22 = load ptr, ptr %4, align 8, !tbaa !45
  %23 = getelementptr inbounds nuw %struct.opj_cparameters, ptr %22, i32 0, i32 3
  %24 = load i32, ptr %23, align 4, !tbaa !87
  br label %29

25:                                               ; preds = %2
  %26 = load ptr, ptr %5, align 8, !tbaa !47
  %27 = getelementptr inbounds nuw %struct.opj_image, ptr %26, i32 0, i32 2
  %28 = load i32, ptr %27, align 8, !tbaa !98
  br label %29

29:                                               ; preds = %25, %21
  %30 = phi i32 [ %24, %21 ], [ %28, %25 ]
  store i32 %30, ptr %8, align 4, !tbaa !3
  %31 = load i16, ptr %7, align 2, !tbaa !169
  %32 = zext i16 %31 to i32
  switch i32 %32, label %81 [
    i32 1024, label %33
    i32 1280, label %34
    i32 1536, label %35
    i32 1792, label %36
    i32 2048, label %46
    i32 2304, label %61
  ]

33:                                               ; preds = %29
  store i32 5, ptr %3, align 4
  store i32 1, ptr %9, align 4
  br label %83

34:                                               ; preds = %29
  store i32 6, ptr %3, align 4
  store i32 1, ptr %9, align 4
  br label %83

35:                                               ; preds = %29
  store i32 7, ptr %3, align 4
  store i32 1, ptr %9, align 4
  br label %83

36:                                               ; preds = %29
  %37 = load i32, ptr %8, align 4, !tbaa !3
  %38 = icmp uge i32 %37, 2048
  br i1 %38, label %39, label %40

39:                                               ; preds = %36
  store i32 5, ptr %3, align 4
  store i32 1, ptr %9, align 4
  br label %83

40:                                               ; preds = %36
  %41 = load i32, ptr %8, align 4, !tbaa !3
  %42 = icmp uge i32 %41, 1024
  br i1 %42, label %43, label %44

43:                                               ; preds = %40
  store i32 4, ptr %3, align 4
  store i32 1, ptr %9, align 4
  br label %83

44:                                               ; preds = %40
  br label %45

45:                                               ; preds = %44
  br label %82

46:                                               ; preds = %29
  %47 = load i32, ptr %8, align 4, !tbaa !3
  %48 = icmp uge i32 %47, 4096
  br i1 %48, label %49, label %50

49:                                               ; preds = %46
  store i32 6, ptr %3, align 4
  store i32 1, ptr %9, align 4
  br label %83

50:                                               ; preds = %46
  %51 = load i32, ptr %8, align 4, !tbaa !3
  %52 = icmp uge i32 %51, 2048
  br i1 %52, label %53, label %54

53:                                               ; preds = %50
  store i32 5, ptr %3, align 4
  store i32 1, ptr %9, align 4
  br label %83

54:                                               ; preds = %50
  %55 = load i32, ptr %8, align 4, !tbaa !3
  %56 = icmp uge i32 %55, 1024
  br i1 %56, label %57, label %58

57:                                               ; preds = %54
  store i32 4, ptr %3, align 4
  store i32 1, ptr %9, align 4
  br label %83

58:                                               ; preds = %54
  br label %59

59:                                               ; preds = %58
  br label %60

60:                                               ; preds = %59
  br label %82

61:                                               ; preds = %29
  %62 = load i32, ptr %8, align 4, !tbaa !3
  %63 = icmp uge i32 %62, 8192
  br i1 %63, label %64, label %65

64:                                               ; preds = %61
  store i32 7, ptr %3, align 4
  store i32 1, ptr %9, align 4
  br label %83

65:                                               ; preds = %61
  %66 = load i32, ptr %8, align 4, !tbaa !3
  %67 = icmp uge i32 %66, 4096
  br i1 %67, label %68, label %69

68:                                               ; preds = %65
  store i32 6, ptr %3, align 4
  store i32 1, ptr %9, align 4
  br label %83

69:                                               ; preds = %65
  %70 = load i32, ptr %8, align 4, !tbaa !3
  %71 = icmp uge i32 %70, 2048
  br i1 %71, label %72, label %73

72:                                               ; preds = %69
  store i32 5, ptr %3, align 4
  store i32 1, ptr %9, align 4
  br label %83

73:                                               ; preds = %69
  %74 = load i32, ptr %8, align 4, !tbaa !3
  %75 = icmp uge i32 %74, 1024
  br i1 %75, label %76, label %77

76:                                               ; preds = %73
  store i32 4, ptr %3, align 4
  store i32 1, ptr %9, align 4
  br label %83

77:                                               ; preds = %73
  br label %78

78:                                               ; preds = %77
  br label %79

79:                                               ; preds = %78
  br label %80

80:                                               ; preds = %79
  br label %82

81:                                               ; preds = %29
  br label %82

82:                                               ; preds = %81, %80, %60, %45
  store i32 -1, ptr %3, align 4
  store i32 1, ptr %9, align 4
  br label %83

83:                                               ; preds = %82, %76, %72, %68, %64, %57, %53, %49, %43, %39, %35, %34, %33
  call void @llvm.lifetime.end.p0(i64 4, ptr %8) #10
  call void @llvm.lifetime.end.p0(i64 2, ptr %7) #10
  call void @llvm.lifetime.end.p0(i64 2, ptr %6) #10
  %84 = load i32, ptr %3, align 4
  ret i32 %84
}

; Function Attrs: nounwind uwtable
define internal void @opj_j2k_set_imf_parameters(ptr noundef %0, ptr noundef %1, ptr noundef %2) #0 {
  %4 = alloca ptr, align 8
  %5 = alloca ptr, align 8
  %6 = alloca ptr, align 8
  %7 = alloca i16, align 2
  %8 = alloca i16, align 2
  %9 = alloca i32, align 4
  %10 = alloca i32, align 4
  store ptr %0, ptr %4, align 8, !tbaa !45
  store ptr %1, ptr %5, align 8, !tbaa !47
  store ptr %2, ptr %6, align 8, !tbaa !48
  call void @llvm.lifetime.start.p0(i64 2, ptr %7) #10
  %11 = load ptr, ptr %4, align 8, !tbaa !45
  %12 = getelementptr inbounds nuw %struct.opj_cparameters, ptr %11, i32 0, i32 59
  %13 = load i16, ptr %12, align 4, !tbaa !65
  store i16 %13, ptr %7, align 2, !tbaa !169
  call void @llvm.lifetime.start.p0(i64 2, ptr %8) #10
  %14 = load i16, ptr %7, align 2, !tbaa !169
  %15 = zext i16 %14 to i32
  %16 = and i32 %15, 65280
  %17 = trunc i32 %16 to i16
  store i16 %17, ptr %8, align 2, !tbaa !169
  %18 = load ptr, ptr %4, align 8, !tbaa !45
  %19 = getelementptr inbounds nuw %struct.opj_cparameters, ptr %18, i32 0, i32 18
  %20 = load i32, ptr %19, align 4, !tbaa !55
  %21 = icmp eq i32 %20, 64
  br i1 %21, label %22, label %32

22:                                               ; preds = %3
  %23 = load ptr, ptr %4, align 8, !tbaa !45
  %24 = getelementptr inbounds nuw %struct.opj_cparameters, ptr %23, i32 0, i32 19
  %25 = load i32, ptr %24, align 8, !tbaa !56
  %26 = icmp eq i32 %25, 64
  br i1 %26, label %27, label %32

27:                                               ; preds = %22
  %28 = load ptr, ptr %4, align 8, !tbaa !45
  %29 = getelementptr inbounds nuw %struct.opj_cparameters, ptr %28, i32 0, i32 18
  store i32 32, ptr %29, align 4, !tbaa !55
  %30 = load ptr, ptr %4, align 8, !tbaa !45
  %31 = getelementptr inbounds nuw %struct.opj_cparameters, ptr %30, i32 0, i32 19
  store i32 32, ptr %31, align 8, !tbaa !56
  br label %32

32:                                               ; preds = %27, %22, %3
  %33 = load ptr, ptr %4, align 8, !tbaa !45
  %34 = getelementptr inbounds nuw %struct.opj_cparameters, ptr %33, i32 0, i32 54
  store i8 67, ptr %34, align 1, !tbaa !101
  %35 = load ptr, ptr %4, align 8, !tbaa !45
  %36 = getelementptr inbounds nuw %struct.opj_cparameters, ptr %35, i32 0, i32 53
  store i8 1, ptr %36, align 8, !tbaa !100
  %37 = load ptr, ptr %4, align 8, !tbaa !45
  %38 = getelementptr inbounds nuw %struct.opj_cparameters, ptr %37, i32 0, i32 11
  %39 = load i32, ptr %38, align 4, !tbaa !114
  %40 = icmp eq i32 %39, 0
  br i1 %40, label %41, label %44

41:                                               ; preds = %32
  %42 = load ptr, ptr %4, align 8, !tbaa !45
  %43 = getelementptr inbounds nuw %struct.opj_cparameters, ptr %42, i32 0, i32 11
  store i32 4, ptr %43, align 4, !tbaa !114
  br label %44

44:                                               ; preds = %41, %32
  %45 = load i16, ptr %8, align 2, !tbaa !169
  %46 = zext i16 %45 to i32
  %47 = icmp eq i32 %46, 1024
  br i1 %47, label %56, label %48

48:                                               ; preds = %44
  %49 = load i16, ptr %8, align 2, !tbaa !169
  %50 = zext i16 %49 to i32
  %51 = icmp eq i32 %50, 1280
  br i1 %51, label %56, label %52

52:                                               ; preds = %48
  %53 = load i16, ptr %8, align 2, !tbaa !169
  %54 = zext i16 %53 to i32
  %55 = icmp eq i32 %54, 1536
  br i1 %55, label %56, label %59

56:                                               ; preds = %52, %48, %44
  %57 = load ptr, ptr %4, align 8, !tbaa !45
  %58 = getelementptr inbounds nuw %struct.opj_cparameters, ptr %57, i32 0, i32 21
  store i32 1, ptr %58, align 8, !tbaa !151
  br label %59

59:                                               ; preds = %56, %52
  %60 = load ptr, ptr %4, align 8, !tbaa !45
  %61 = getelementptr inbounds nuw %struct.opj_cparameters, ptr %60, i32 0, i32 17
  %62 = load i32, ptr %61, align 8, !tbaa !52
  %63 = icmp eq i32 %62, 6
  br i1 %63, label %64, label %135

64:                                               ; preds = %59
  %65 = load ptr, ptr %5, align 8, !tbaa !47
  %66 = getelementptr inbounds nuw %struct.opj_image, ptr %65, i32 0, i32 0
  %67 = load i32, ptr %66, align 8, !tbaa !171
  %68 = icmp eq i32 %67, 0
  br i1 %68, label %69, label %135

69:                                               ; preds = %64
  %70 = load ptr, ptr %5, align 8, !tbaa !47
  %71 = getelementptr inbounds nuw %struct.opj_image, ptr %70, i32 0, i32 1
  %72 = load i32, ptr %71, align 4, !tbaa !172
  %73 = icmp eq i32 %72, 0
  br i1 %73, label %74, label %135

74:                                               ; preds = %69
  call void @llvm.lifetime.start.p0(i64 4, ptr %9) #10
  %75 = load ptr, ptr %4, align 8, !tbaa !45
  %76 = load ptr, ptr %5, align 8, !tbaa !47
  %77 = call i32 @opj_j2k_get_imf_max_NL(ptr noundef %75, ptr noundef %76)
  store i32 %77, ptr %9, align 4, !tbaa !3
  %78 = load i32, ptr %9, align 4, !tbaa !3
  %79 = icmp sge i32 %78, 0
  br i1 %79, label %80, label %91

80:                                               ; preds = %74
  %81 = load ptr, ptr %4, align 8, !tbaa !45
  %82 = getelementptr inbounds nuw %struct.opj_cparameters, ptr %81, i32 0, i32 17
  %83 = load i32, ptr %82, align 8, !tbaa !52
  %84 = load i32, ptr %9, align 4, !tbaa !3
  %85 = icmp sgt i32 %83, %84
  br i1 %85, label %86, label %91

86:                                               ; preds = %80
  %87 = load i32, ptr %9, align 4, !tbaa !3
  %88 = add nsw i32 %87, 1
  %89 = load ptr, ptr %4, align 8, !tbaa !45
  %90 = getelementptr inbounds nuw %struct.opj_cparameters, ptr %89, i32 0, i32 17
  store i32 %88, ptr %90, align 8, !tbaa !52
  br label %91

91:                                               ; preds = %86, %80, %74
  %92 = load ptr, ptr %4, align 8, !tbaa !45
  %93 = getelementptr inbounds nuw %struct.opj_cparameters, ptr %92, i32 0, i32 0
  %94 = load i32, ptr %93, align 8, !tbaa !97
  %95 = icmp ne i32 %94, 0
  br i1 %95, label %134, label %96

96:                                               ; preds = %91
  br label %97

97:                                               ; preds = %127, %112, %96
  %98 = load ptr, ptr %4, align 8, !tbaa !45
  %99 = getelementptr inbounds nuw %struct.opj_cparameters, ptr %98, i32 0, i32 17
  %100 = load i32, ptr %99, align 8, !tbaa !52
  %101 = icmp sgt i32 %100, 0
  br i1 %101, label %102, label %133

102:                                              ; preds = %97
  %103 = load ptr, ptr %5, align 8, !tbaa !47
  %104 = getelementptr inbounds nuw %struct.opj_image, ptr %103, i32 0, i32 2
  %105 = load i32, ptr %104, align 8, !tbaa !98
  %106 = load ptr, ptr %4, align 8, !tbaa !45
  %107 = getelementptr inbounds nuw %struct.opj_cparameters, ptr %106, i32 0, i32 17
  %108 = load i32, ptr %107, align 8, !tbaa !52
  %109 = sub i32 %108, 1
  %110 = shl i32 1, %109
  %111 = icmp ult i32 %105, %110
  br i1 %111, label %112, label %117

112:                                              ; preds = %102
  %113 = load ptr, ptr %4, align 8, !tbaa !45
  %114 = getelementptr inbounds nuw %struct.opj_cparameters, ptr %113, i32 0, i32 17
  %115 = load i32, ptr %114, align 8, !tbaa !52
  %116 = add nsw i32 %115, -1
  store i32 %116, ptr %114, align 8, !tbaa !52
  br label %97, !llvm.loop !173

117:                                              ; preds = %102
  %118 = load ptr, ptr %5, align 8, !tbaa !47
  %119 = getelementptr inbounds nuw %struct.opj_image, ptr %118, i32 0, i32 3
  %120 = load i32, ptr %119, align 4, !tbaa !99
  %121 = load ptr, ptr %4, align 8, !tbaa !45
  %122 = getelementptr inbounds nuw %struct.opj_cparameters, ptr %121, i32 0, i32 17
  %123 = load i32, ptr %122, align 8, !tbaa !52
  %124 = sub i32 %123, 1
  %125 = shl i32 1, %124
  %126 = icmp ult i32 %120, %125
  br i1 %126, label %127, label %132

127:                                              ; preds = %117
  %128 = load ptr, ptr %4, align 8, !tbaa !45
  %129 = getelementptr inbounds nuw %struct.opj_cparameters, ptr %128, i32 0, i32 17
  %130 = load i32, ptr %129, align 8, !tbaa !52
  %131 = add nsw i32 %130, -1
  store i32 %131, ptr %129, align 8, !tbaa !52
  br label %97, !llvm.loop !173

132:                                              ; preds = %117
  br label %133

133:                                              ; preds = %132, %97
  br label %134

134:                                              ; preds = %133, %91
  call void @llvm.lifetime.end.p0(i64 4, ptr %9) #10
  br label %135

135:                                              ; preds = %134, %69, %64, %59
  %136 = load ptr, ptr %4, align 8, !tbaa !45
  %137 = getelementptr inbounds nuw %struct.opj_cparameters, ptr %136, i32 0, i32 10
  %138 = load i32, ptr %137, align 8, !tbaa !112
  %139 = icmp eq i32 %138, 0
  br i1 %139, label %140, label %187

140:                                              ; preds = %135
  %141 = load ptr, ptr %4, align 8, !tbaa !45
  %142 = getelementptr inbounds nuw %struct.opj_cparameters, ptr %141, i32 0, i32 10
  %143 = load i32, ptr %142, align 8, !tbaa !112
  %144 = or i32 %143, 1
  store i32 %144, ptr %142, align 8, !tbaa !112
  %145 = load ptr, ptr %4, align 8, !tbaa !45
  %146 = getelementptr inbounds nuw %struct.opj_cparameters, ptr %145, i32 0, i32 17
  %147 = load i32, ptr %146, align 8, !tbaa !52
  %148 = icmp eq i32 %147, 1
  br i1 %148, label %149, label %158

149:                                              ; preds = %140
  %150 = load ptr, ptr %4, align 8, !tbaa !45
  %151 = getelementptr inbounds nuw %struct.opj_cparameters, ptr %150, i32 0, i32 24
  store i32 1, ptr %151, align 4, !tbaa !158
  %152 = load ptr, ptr %4, align 8, !tbaa !45
  %153 = getelementptr inbounds nuw %struct.opj_cparameters, ptr %152, i32 0, i32 25
  %154 = getelementptr inbounds [33 x i32], ptr %153, i64 0, i64 0
  store i32 128, ptr %154, align 8, !tbaa !3
  %155 = load ptr, ptr %4, align 8, !tbaa !45
  %156 = getelementptr inbounds nuw %struct.opj_cparameters, ptr %155, i32 0, i32 26
  %157 = getelementptr inbounds [33 x i32], ptr %156, i64 0, i64 0
  store i32 128, ptr %157, align 4, !tbaa !3
  br label %186

158:                                              ; preds = %140
  call void @llvm.lifetime.start.p0(i64 4, ptr %10) #10
  %159 = load ptr, ptr %4, align 8, !tbaa !45
  %160 = getelementptr inbounds nuw %struct.opj_cparameters, ptr %159, i32 0, i32 17
  %161 = load i32, ptr %160, align 8, !tbaa !52
  %162 = sub nsw i32 %161, 1
  %163 = load ptr, ptr %4, align 8, !tbaa !45
  %164 = getelementptr inbounds nuw %struct.opj_cparameters, ptr %163, i32 0, i32 24
  store i32 %162, ptr %164, align 4, !tbaa !158
  store i32 0, ptr %10, align 4, !tbaa !3
  br label %165

165:                                              ; preds = %182, %158
  %166 = load i32, ptr %10, align 4, !tbaa !3
  %167 = load ptr, ptr %4, align 8, !tbaa !45
  %168 = getelementptr inbounds nuw %struct.opj_cparameters, ptr %167, i32 0, i32 24
  %169 = load i32, ptr %168, align 4, !tbaa !158
  %170 = icmp slt i32 %166, %169
  br i1 %170, label %171, label %185

171:                                              ; preds = %165
  %172 = load ptr, ptr %4, align 8, !tbaa !45
  %173 = getelementptr inbounds nuw %struct.opj_cparameters, ptr %172, i32 0, i32 25
  %174 = load i32, ptr %10, align 4, !tbaa !3
  %175 = sext i32 %174 to i64
  %176 = getelementptr inbounds [33 x i32], ptr %173, i64 0, i64 %175
  store i32 256, ptr %176, align 4, !tbaa !3
  %177 = load ptr, ptr %4, align 8, !tbaa !45
  %178 = getelementptr inbounds nuw %struct.opj_cparameters, ptr %177, i32 0, i32 26
  %179 = load i32, ptr %10, align 4, !tbaa !3
  %180 = sext i32 %179 to i64
  %181 = getelementptr inbounds [33 x i32], ptr %178, i64 0, i64 %180
  store i32 256, ptr %181, align 4, !tbaa !3
  br label %182

182:                                              ; preds = %171
  %183 = load i32, ptr %10, align 4, !tbaa !3
  %184 = add nsw i32 %183, 1
  store i32 %184, ptr %10, align 4, !tbaa !3
  br label %165, !llvm.loop !174

185:                                              ; preds = %165
  call void @llvm.lifetime.end.p0(i64 4, ptr %10) #10
  br label %186

186:                                              ; preds = %185, %149
  br label %187

187:                                              ; preds = %186, %135
  call void @llvm.lifetime.end.p0(i64 2, ptr %8) #10
  call void @llvm.lifetime.end.p0(i64 2, ptr %7) #10
  ret void
}