; Function Attrs: nofree norecurse nosync nounwind memory(read, argmem: readwrite, inaccessiblemem: none) uwtable
define internal fastcc void @opj_j2k_set_imf_parameters(ptr noundef nonnull captures(none) initializes((18696, 18698)) %0, ptr noundef nonnull readonly captures(none) %1) unnamed_addr #5 {
  %3 = getelementptr inbounds nuw i8, ptr %0, i64 18716
  %4 = load i16, ptr %3, align 4, !tbaa !61
  %5 = and i16 %4, -256
  %6 = getelementptr inbounds nuw i8, ptr %0, i64 5604
  %7 = load i32, ptr %6, align 4, !tbaa !52
  %8 = icmp eq i32 %7, 64
  br i1 %8, label %9, label %14

9:                                                ; preds = %2
  %10 = getelementptr inbounds nuw i8, ptr %0, i64 5608
  %11 = load i32, ptr %10, align 8, !tbaa !53
  %12 = icmp eq i32 %11, 64
  br i1 %12, label %13, label %14

13:                                               ; preds = %9
  store i32 32, ptr %6, align 4, !tbaa !52
  store i32 32, ptr %10, align 8, !tbaa !53
  br label %14

14:                                               ; preds = %13, %9, %2
  %15 = getelementptr inbounds nuw i8, ptr %0, i64 18697
  store i8 67, ptr %15, align 1, !tbaa !94
  %16 = getelementptr inbounds nuw i8, ptr %0, i64 18696
  store i8 1, ptr %16, align 8, !tbaa !93
  %17 = getelementptr inbounds nuw i8, ptr %0, i64 52
  %18 = load i32, ptr %17, align 4, !tbaa !105
  %19 = icmp eq i32 %18, 0
  br i1 %19, label %20, label %21

20:                                               ; preds = %14
  store i32 4, ptr %17, align 4, !tbaa !105
  br label %21

21:                                               ; preds = %20, %14
  %22 = and i16 %4, -512
  %or.cond = icmp eq i16 %22, 1024
  %23 = icmp eq i16 %5, 1536
  %or.cond5 = or i1 %or.cond, %23
  br i1 %or.cond5, label %24, label %26

24:                                               ; preds = %21
  %25 = getelementptr inbounds nuw i8, ptr %0, i64 5616
  store i32 1, ptr %25, align 8, !tbaa !137
  br label %26

26:                                               ; preds = %21, %24
  %27 = getelementptr inbounds nuw i8, ptr %0, i64 5600
  %28 = load i32, ptr %27, align 8, !tbaa !49
  %29 = icmp eq i32 %28, 6
  br i1 %29, label %30, label %.loopexit7

30:                                               ; preds = %26
  %31 = load i32, ptr %1, align 8, !tbaa !155
  %32 = icmp eq i32 %31, 0
  br i1 %32, label %33, label %.loopexit7

33:                                               ; preds = %30
  %34 = getelementptr inbounds nuw i8, ptr %1, i64 4
  %35 = load i32, ptr %34, align 4, !tbaa !156
  %36 = icmp eq i32 %35, 0
  br i1 %36, label %37, label %.loopexit7

37:                                               ; preds = %33
  %38 = load i32, ptr %0, align 8, !tbaa !90
  %.not.i = icmp eq i32 %38, 0
  %39 = getelementptr inbounds nuw i8, ptr %0, i64 12
  %40 = getelementptr inbounds nuw i8, ptr %1, i64 8
  %.in.i = select i1 %.not.i, ptr %40, ptr %39
  %41 = load i32, ptr %.in.i, align 4, !tbaa !125
  %42 = zext i16 %4 to i32
  %43 = add nsw i32 %42, -1024
  %44 = lshr i32 %43, 8
  switch i32 %44, label %opj_j2k_get_imf_max_NL.exit [
    i32 0, label %60
    i32 5, label %55
    i32 4, label %49
    i32 3, label %45
  ]

45:                                               ; preds = %37
  %46 = icmp ugt i32 %41, 2047
  br i1 %46, label %60, label %47

47:                                               ; preds = %45
  %48 = icmp samesign ugt i32 %41, 1023
  br i1 %48, label %60, label %opj_j2k_get_imf_max_NL.exit

49:                                               ; preds = %37
  %50 = icmp ugt i32 %41, 4095
  br i1 %50, label %opj_j2k_get_imf_max_NL.exit, label %51

51:                                               ; preds = %49
  %52 = icmp samesign ugt i32 %41, 2047
  br i1 %52, label %60, label %53

53:                                               ; preds = %51
  %54 = icmp samesign ugt i32 %41, 1023
  br i1 %54, label %60, label %opj_j2k_get_imf_max_NL.exit

55:                                               ; preds = %37
  %or.cond6.not = icmp ult i32 %41, 4096
  br i1 %or.cond6.not, label %56, label %opj_j2k_get_imf_max_NL.exit

56:                                               ; preds = %55
  %57 = icmp samesign ugt i32 %41, 2047
  br i1 %57, label %60, label %58

58:                                               ; preds = %56
  %59 = icmp samesign ugt i32 %41, 1023
  br i1 %59, label %60, label %opj_j2k_get_imf_max_NL.exit

60:                                               ; preds = %58, %56, %53, %51, %47, %45, %37
  %.0.i.ph.ph = phi i32 [ 6, %37 ], [ 6, %45 ], [ 5, %47 ], [ 6, %51 ], [ 5, %53 ], [ 6, %56 ], [ 5, %58 ]
  store i32 %.0.i.ph.ph, ptr %27, align 8, !tbaa !49
  br label %opj_j2k_get_imf_max_NL.exit

opj_j2k_get_imf_max_NL.exit:                      ; preds = %55, %49, %58, %53, %47, %37, %60
  %.pr = phi i32 [ 6, %55 ], [ 6, %49 ], [ 6, %58 ], [ 6, %53 ], [ 6, %47 ], [ 6, %37 ], [ %.0.i.ph.ph, %60 ]
  br i1 %.not.i, label %.lr.ph, label %.loopexit7

.lr.ph:                                           ; preds = %opj_j2k_get_imf_max_NL.exit
  %61 = getelementptr inbounds nuw i8, ptr %1, i64 12
  %62 = load i32, ptr %40, align 8, !tbaa !91
  br label %63

63:                                               ; preds = %.lr.ph, %.backedge
  %64 = phi i32 [ %.pr, %.lr.ph ], [ %65, %.backedge ]
  %65 = add nsw i32 %64, -1
  %66 = shl nuw i32 1, %65
  %67 = icmp ult i32 %62, %66
  br i1 %67, label %.backedge, label %69

.backedge:                                        ; preds = %69, %63
  store i32 %65, ptr %27, align 8, !tbaa !49
  %68 = icmp samesign ugt i32 %64, 1
  br i1 %68, label %63, label %.loopexit7, !llvm.loop !157

69:                                               ; preds = %63
  %70 = load i32, ptr %61, align 4, !tbaa !92
  %71 = icmp ult i32 %70, %66
  br i1 %71, label %.backedge, label %.loopexit7

.loopexit7:                                       ; preds = %.backedge, %69, %opj_j2k_get_imf_max_NL.exit, %33, %30, %26
  %72 = phi i32 [ %.pr, %opj_j2k_get_imf_max_NL.exit ], [ 6, %33 ], [ 6, %30 ], [ %28, %26 ], [ %65, %.backedge ], [ %64, %69 ]
  %73 = getelementptr inbounds nuw i8, ptr %0, i64 48
  %74 = load i32, ptr %73, align 8, !tbaa !103
  %75 = icmp eq i32 %74, 0
  br i1 %75, label %76, label %.loopexit

76:                                               ; preds = %.loopexit7
  store i32 1, ptr %73, align 8, !tbaa !103
  %77 = icmp eq i32 %72, 1
  br i1 %77, label %78, label %82

78:                                               ; preds = %76
  %79 = getelementptr inbounds nuw i8, ptr %0, i64 5628
  store i32 1, ptr %79, align 4, !tbaa !144
  %80 = getelementptr inbounds nuw i8, ptr %0, i64 5632
  store i32 128, ptr %80, align 8, !tbaa !125
  %81 = getelementptr inbounds nuw i8, ptr %0, i64 5764
  store i32 128, ptr %81, align 4, !tbaa !125
  br label %.loopexit

82:                                               ; preds = %76
  %83 = add i32 %72, -1
  %84 = getelementptr inbounds nuw i8, ptr %0, i64 5628
  store i32 %83, ptr %84, align 4, !tbaa !144
  %85 = icmp sgt i32 %72, 1
  br i1 %85, label %.lr.ph10, label %.loopexit

.lr.ph10:                                         ; preds = %82
  %86 = getelementptr inbounds nuw i8, ptr %0, i64 5632
  %87 = getelementptr inbounds nuw i8, ptr %0, i64 5764
  %wide.trip.count = zext nneg i32 %83 to i64
  br label %88

88:                                               ; preds = %.lr.ph10, %88
  %indvars.iv = phi i64 [ 0, %.lr.ph10 ], [ %indvars.iv.next, %88 ]
  %89 = getelementptr inbounds nuw [33 x i32], ptr %86, i64 0, i64 %indvars.iv
  store i32 256, ptr %89, align 4, !tbaa !125
  %90 = getelementptr inbounds nuw [33 x i32], ptr %87, i64 0, i64 %indvars.iv
  store i32 256, ptr %90, align 4, !tbaa !125
  %indvars.iv.next = add nuw nsw i64 %indvars.iv, 1
  %exitcond.not = icmp eq i64 %indvars.iv.next, %wide.trip.count
  br i1 %exitcond.not, label %.loopexit, label %88, !llvm.loop !158

.loopexit:                                        ; preds = %88, %82, %78, %.loopexit7
  ret void
}